; Function Attrs: null_pointer_is_valid sspstrong uwtable
define internal i32 @witness_dissect_notifyResponse_message_(ptr noundef %0, i32 noundef %1, i32 %2, ptr noundef %3, ptr noundef %4, ptr noundef %5, ptr readnone captures(none) %6) #0 {
  %8 = alloca ptr, align 8
  %9 = alloca [4 x i8], align 4
  %10 = getelementptr inbounds nuw i8, ptr %5, i64 88
  %11 = load ptr, ptr %10, align 8
  call void @llvm.lifetime.start.p0(i64 4, ptr nonnull %9) #6
  store i32 16, ptr %9, align 4
  %12 = load i32, ptr %11, align 4
  call void @llvm.lifetime.start.p0(i64 8, ptr nonnull %8) #6
  store ptr null, ptr %8, align 8
  %.not.i = icmp eq ptr %4, null
  br i1 %.not.i, label %16, label %13

13:                                               ; preds = %7
  %14 = load i32, ptr @ett_witness_witness_notifyResponse_message, align 4
  %15 = call ptr @proto_tree_add_subtree(ptr noundef nonnull %4, ptr noundef %0, i32 noundef %1, i32 noundef -1, i32 noundef %14, ptr noundef nonnull %8, ptr noundef nonnull @.str.112)
  br label %16

16:                                               ; preds = %13, %7
  %.039.i = phi ptr [ %15, %13 ], [ null, %7 ]
  switch i32 %12, label %29 [
    i32 1, label %17
    i32 2, label %20
    i32 3, label %23
    i32 4, label %26
  ]

17:                                               ; preds = %16
  %18 = load i32, ptr @hf_witness_witness_notifyResponse_message_resource_change, align 4
  %19 = call i32 @witness_dissect_struct_ResourceChange(ptr noundef %0, i32 noundef %1, ptr noundef %3, ptr noundef %.039.i, ptr noundef %5, ptr noundef nonnull %9, i32 noundef %18, i32 poison)
  br label %witness_dissect_notifyResponse_message.exit

20:                                               ; preds = %16
  %21 = load i32, ptr @hf_witness_witness_notifyResponse_message_client_move, align 4
  %22 = call i32 @witness_dissect_struct_IPaddrInfoList(ptr noundef %0, i32 noundef %1, ptr noundef %3, ptr noundef %.039.i, ptr noundef %5, ptr noundef nonnull %9, i32 noundef %21, i32 poison)
  br label %witness_dissect_notifyResponse_message.exit

23:                                               ; preds = %16
  %24 = load i32, ptr @hf_witness_witness_notifyResponse_message_share_move, align 4
  %25 = call i32 @witness_dissect_struct_IPaddrInfoList(ptr noundef %0, i32 noundef %1, ptr noundef %3, ptr noundef %.039.i, ptr noundef %5, ptr noundef nonnull %9, i32 noundef %24, i32 poison)
  br label %witness_dissect_notifyResponse_message.exit

26:                                               ; preds = %16
  %27 = load i32, ptr @hf_witness_witness_notifyResponse_message_ip_change, align 4
  %28 = call i32 @witness_dissect_struct_IPaddrInfoList(ptr noundef %0, i32 noundef %1, ptr noundef %3, ptr noundef %.039.i, ptr noundef %5, ptr noundef nonnull %9, i32 noundef %27, i32 poison)
  br label %witness_dissect_notifyResponse_message.exit

29:                                               ; preds = %16
  %30 = load i32, ptr @hf_witness_witness_notifyResponse_message_data, align 4
  %31 = call i32 @dissect_ndr_datablob(ptr noundef %0, i32 noundef %1, ptr noundef %3, ptr noundef %.039.i, ptr noundef %5, ptr noundef nonnull %9, i32 noundef %30, i32 noundef 1)
  br label %witness_dissect_notifyResponse_message.exit

witness_dissect_notifyResponse_message.exit:      ; preds = %17, %20, %23, %26, %29
  %.0.i = phi i32 [ %31, %29 ], [ %28, %26 ], [ %25, %23 ], [ %22, %20 ], [ %19, %17 ]
  %32 = load ptr, ptr %8, align 8
  %33 = sub i32 %.0.i, %1
  call void @proto_item_set_len(ptr noundef %32, i32 noundef %33)
  call void @llvm.lifetime.end.p0(i64 8, ptr nonnull %8) #6
  call void @llvm.lifetime.end.p0(i64 4, ptr nonnull %9) #6
  ret i32 %.0.i
}